; ModuleID = 'source-C-CXX/41/1353.cpp'
source_filename = "source-C-CXX/41/1353.cpp"
target datalayout = "e-m:e-p270:32:32-p271:32:32-p272:64:64-i64:64-f80:128-n8:16:32:64-S128"
target triple = "x86_64-pc-linux-gnu"

%"class.std::ios_base::Init" = type { i8 }
%"class.std::basic_istream" = type { i32 (...)**, i64, %"class.std::basic_ios" }
%"class.std::basic_ios" = type { %"class.std::ios_base", %"class.std::basic_ostream"*, i8, i8, %"class.std::basic_streambuf"*, %"class.std::ctype"*, %"class.std::num_put"*, %"class.std::num_get"* }
%"class.std::ios_base" = type { i32 (...)**, i64, i64, i32, i32, i32, %"struct.std::ios_base::_Callback_list"*, %"struct.std::ios_base::_Words", [8 x %"struct.std::ios_base::_Words"], i32, %"struct.std::ios_base::_Words"*, %"class.std::locale" }
%"struct.std::ios_base::_Callback_list" = type { %"struct.std::ios_base::_Callback_list"*, void (i32, %"class.std::ios_base"*, i32)*, i32, i32 }
%"struct.std::ios_base::_Words" = type { i8*, i64 }
%"class.std::locale" = type { %"class.std::locale::_Impl"* }
%"class.std::locale::_Impl" = type { i32, %"class.std::locale::facet"**, i64, %"class.std::locale::facet"**, i8** }
%"class.std::locale::facet" = type <{ i32 (...)**, i32, [4 x i8] }>
%"class.std::basic_ostream" = type { i32 (...)**, %"class.std::basic_ios" }
%"class.std::basic_streambuf" = type { i32 (...)**, i8*, i8*, i8*, i8*, i8*, i8*, %"class.std::locale" }
%"class.std::ctype" = type <{ %"class.std::locale::facet.base", [4 x i8], %struct.__locale_struct*, i8, [7 x i8], i32*, i32*, i16*, i8, [256 x i8], [256 x i8], i8, [6 x i8] }>
%"class.std::locale::facet.base" = type <{ i32 (...)**, i32 }>
%struct.__locale_struct = type { [13 x %struct.__locale_data*], i16*, i32*, i32*, [13 x i8*] }
%struct.__locale_data = type opaque
%"class.std::num_put" = type { %"class.std::locale::facet.base", [4 x i8] }
%"class.std::num_get" = type { %"class.std::locale::facet.base", [4 x i8] }

@_ZStL8__ioinit = internal global %"class.std::ios_base::Init" zeroinitializer, align 1
@__dso_handle = external hidden global i8
@_ZSt3cin = external global %"class.std::basic_istream", align 8
@_ZSt4cout = external global %"class.std::basic_ostream", align 8
@.str = private unnamed_addr constant [2 x i8] c" \00", align 1
@llvm.global_ctors = appending global [1 x { i32, void ()*, i8* }] [{ i32, void ()*, i8* } { i32 65535, void ()* @_GLOBAL__sub_I_1353.cpp, i8* null }]

declare void @_ZNSt8ios_base4InitC1Ev(%"class.std::ios_base::Init"* nonnull align 1 dereferenceable(1)) unnamed_addr #0

; Function Attrs: nounwind
declare void @_ZNSt8ios_base4InitD1Ev(%"class.std::ios_base::Init"* nonnull align 1 dereferenceable(1)) unnamed_addr #1

; Function Attrs: nofree nounwind
declare i32 @__cxa_atexit(void (i8*)*, i8*, i8*) local_unnamed_addr #2

; Function Attrs: mustprogress norecurse sspstrong uwtable
define dso_local i32 @main() local_unnamed_addr #3 {
  %1 = alloca [100001 x i32], align 16
  %2 = alloca i32, align 4
  %3 = alloca i32, align 4
  %4 = bitcast [100001 x i32]* %1 to i8*
  call void @llvm.lifetime.start.p0i8(i64 400004, i8* nonnull %4) #8
  call void @llvm.memset.p0i8.i64(i8* noundef nonnull align 16 dereferenceable(400004) %4, i8 0, i64 400004, i1 false)
  %5 = bitcast i32* %2 to i8*
  call void @llvm.lifetime.start.p0i8(i64 4, i8* nonnull %5) #8
  %6 = bitcast i32* %3 to i8*
  call void @llvm.lifetime.start.p0i8(i64 4, i8* nonnull %6) #8
  %7 = call nonnull align 8 dereferenceable(16) %"class.std::basic_istream"* @_ZNSirsERi(%"class.std::basic_istream"* nonnull align 8 dereferenceable(16) @_ZSt3cin, i32* nonnull align 4 dereferenceable(4) %2)
  %8 = load i32, i32* %2, align 4, !tbaa !5
  %9 = icmp sgt i32 %8, 0
  br i1 %9, label %10, label %18

10:                                               ; preds = %0, %10
  %11 = phi i64 [ %14, %10 ], [ 0, %0 ]
  %12 = getelementptr inbounds [100001 x i32], [100001 x i32]* %1, i64 0, i64 %11
  %13 = call nonnull align 8 dereferenceable(16) %"class.std::basic_istream"* @_ZNSirsERi(%"class.std::basic_istream"* nonnull align 8 dereferenceable(16) @_ZSt3cin, i32* nonnull align 4 dereferenceable(4) %12)
  %14 = add nuw nsw i64 %11, 1
  %15 = load i32, i32* %2, align 4, !tbaa !5
  %16 = sext i32 %15 to i64
  %17 = icmp slt i64 %14, %16
  br i1 %17, label %10, label %18, !llvm.loop !9

18:                                               ; preds = %10, %0
  %19 = call nonnull align 8 dereferenceable(16) %"class.std::basic_istream"* @_ZNSirsERi(%"class.std::basic_istream"* nonnull align 8 dereferenceable(16) @_ZSt3cin, i32* nonnull align 4 dereferenceable(4) %3)
  %20 = load i32, i32* %3, align 4, !tbaa !5
  %21 = load i32, i32* %2, align 4
  %22 = sext i32 %21 to i64
  br label %23

23:                                               ; preds = %78, %18
  %24 = phi i64 [ %81, %78 ], [ 0, %18 ]
  %25 = phi i32 [ %79, %78 ], [ undef, %18 ]
  %26 = phi i32 [ %80, %78 ], [ 0, %18 ]
  %27 = getelementptr inbounds [100001 x i32], [100001 x i32]* %1, i64 0, i64 %24
  %28 = load i32, i32* %27, align 4, !tbaa !5
  %29 = icmp eq i32 %28, %20
  br i1 %29, label %30, label %78

30:                                               ; preds = %23
  %31 = add nsw i32 %26, 1
  %32 = icmp slt i64 %24, %22
  %33 = trunc i64 %24 to i32
  br i1 %32, label %34, label %78

34:                                               ; preds = %30
  %35 = zext i32 %21 to i64
  %36 = sub nsw i64 %35, %24
  %37 = xor i64 %24, -1
  %38 = and i64 %36, 1
  %39 = icmp eq i64 %38, 0
  br i1 %39, label %52, label %40

40:                                               ; preds = %34
  %41 = add nuw nsw i64 %24, 1
  %42 = getelementptr inbounds [100001 x i32], [100001 x i32]* %1, i64 0, i64 %41
  %43 = load i32, i32* %42, align 4, !tbaa !5
  %44 = icmp eq i32 %43, %20
  br i1 %44, label %50, label %45

45:                                               ; preds = %40
  %46 = trunc i64 %41 to i32
  %47 = sub nsw i32 %46, %31
  %48 = sext i32 %47 to i64
  %49 = getelementptr inbounds [100001 x i32], [100001 x i32]* %1, i64 0, i64 %48
  store i32 %43, i32* %49, align 4, !tbaa !5
  br label %52

50:                                               ; preds = %40
  %51 = add nsw i32 %26, 2
  br label %52

52:                                               ; preds = %45, %50, %34
  %53 = phi i32 [ undef, %34 ], [ %31, %45 ], [ %51, %50 ]
  %54 = phi i64 [ %24, %34 ], [ %41, %50 ], [ %41, %45 ]
  %55 = phi i32 [ %31, %34 ], [ %31, %45 ], [ %51, %50 ]
  %56 = sub nsw i64 0, %35
  %57 = icmp eq i64 %37, %56
  br i1 %57, label %83, label %58

58:                                               ; preds = %52, %137
  %59 = phi i64 [ %74, %137 ], [ %54, %52 ]
  %60 = phi i32 [ %138, %137 ], [ %55, %52 ]
  %61 = add nuw nsw i64 %59, 1
  %62 = getelementptr inbounds [100001 x i32], [100001 x i32]* %1, i64 0, i64 %61
  %63 = load i32, i32* %62, align 4, !tbaa !5
  %64 = icmp eq i32 %63, %20
  br i1 %64, label %70, label %65

65:                                               ; preds = %58
  %66 = trunc i64 %61 to i32
  %67 = sub nsw i32 %66, %60
  %68 = sext i32 %67 to i64
  %69 = getelementptr inbounds [100001 x i32], [100001 x i32]* %1, i64 0, i64 %68
  store i32 %63, i32* %69, align 4, !tbaa !5
  br label %72

70:                                               ; preds = %58
  %71 = add nsw i32 %60, 1
  br label %72

72:                                               ; preds = %65, %70
  %73 = phi i32 [ %60, %65 ], [ %71, %70 ]
  %74 = add nuw nsw i64 %59, 2
  %75 = getelementptr inbounds [100001 x i32], [100001 x i32]* %1, i64 0, i64 %74
  %76 = load i32, i32* %75, align 4, !tbaa !5
  %77 = icmp eq i32 %76, %20
  br i1 %77, label %135, label %130

78:                                               ; preds = %30, %23
  %79 = phi i32 [ %25, %23 ], [ %33, %30 ]
  %80 = phi i32 [ %26, %23 ], [ %31, %30 ]
  %81 = add nuw nsw i64 %24, 1
  %82 = icmp slt i32 %79, %21
  br i1 %82, label %23, label %83, !llvm.loop !11

83:                                               ; preds = %78, %52, %137
  %84 = phi i32 [ %53, %52 ], [ %138, %137 ], [ %80, %78 ]
  %85 = getelementptr inbounds [100001 x i32], [100001 x i32]* %1, i64 0, i64 0
  %86 = load i32, i32* %85, align 16, !tbaa !5
  %87 = call nonnull align 8 dereferenceable(8) %"class.std::basic_ostream"* @_ZNSolsEi(%"class.std::basic_ostream"* nonnull align 8 dereferenceable(8) @_ZSt4cout, i32 %86)
  %88 = load i32, i32* %2, align 4, !tbaa !5
  %89 = sub nsw i32 %88, %84
  %90 = icmp sgt i32 %89, 1
  br i1 %90, label %91, label %102

91:                                               ; preds = %83, %91
  %92 = phi i64 [ %97, %91 ], [ 1, %83 ]
  %93 = call nonnull align 8 dereferenceable(8) %"class.std::basic_ostream"* @_ZSt16__ostream_insertIcSt11char_traitsIcEERSt13basic_ostreamIT_T0_ES6_PKS3_l(%"class.std::basic_ostream"* nonnull align 8 dereferenceable(8) @_ZSt4cout, i8* nonnull getelementptr inbounds ([2 x i8], [2 x i8]* @.str, i64 0, i64 0), i64 1)
  %94 = getelementptr inbounds [100001 x i32], [100001 x i32]* %1, i64 0, i64 %92
  %95 = load i32, i32* %94, align 4, !tbaa !5
  %96 = call nonnull align 8 dereferenceable(8) %"class.std::basic_ostream"* @_ZNSolsEi(%"class.std::basic_ostream"* nonnull align 8 dereferenceable(8) @_ZSt4cout, i32 %95)
  %97 = add nuw nsw i64 %92, 1
  %98 = load i32, i32* %2, align 4, !tbaa !5
  %99 = sub nsw i32 %98, %84
  %100 = sext i32 %99 to i64
  %101 = icmp slt i64 %97, %100
  br i1 %101, label %91, label %102, !llvm.loop !12

102:                                              ; preds = %91, %83
  %103 = load i8*, i8** bitcast (%"class.std::basic_ostream"* @_ZSt4cout to i8**), align 8, !tbaa !13
  %104 = getelementptr i8, i8* %103, i64 -24
  %105 = bitcast i8* %104 to i64*
  %106 = load i64, i64* %105, align 8
  %107 = add nsw i64 %106, 240
  %108 = getelementptr inbounds i8, i8* bitcast (%"class.std::basic_ostream"* @_ZSt4cout to i8*), i64 %107
  %109 = bitcast i8* %108 to %"class.std::ctype"**
  %110 = load %"class.std::ctype"*, %"class.std::ctype"** %109, align 8, !tbaa !15
  %111 = icmp eq %"class.std::ctype"* %110, null
  br i1 %111, label %112, label %113

112:                                              ; preds = %102
  call void @_ZSt16__throw_bad_castv() #9
  unreachable

113:                                              ; preds = %102
  %114 = getelementptr inbounds %"class.std::ctype", %"class.std::ctype"* %110, i64 0, i32 8
  %115 = load i8, i8* %114, align 8, !tbaa !19
  %116 = icmp eq i8 %115, 0
  br i1 %116, label %120, label %117

117:                                              ; preds = %113
  %118 = getelementptr inbounds %"class.std::ctype", %"class.std::ctype"* %110, i64 0, i32 9, i64 10
  %119 = load i8, i8* %118, align 1, !tbaa !21
  br label %126

120:                                              ; preds = %113
  call void @_ZNKSt5ctypeIcE13_M_widen_initEv(%"class.std::ctype"* nonnull align 8 dereferenceable(570) %110)
  %121 = bitcast %"class.std::ctype"* %110 to i8 (%"class.std::ctype"*, i8)***
  %122 = load i8 (%"class.std::ctype"*, i8)**, i8 (%"class.std::ctype"*, i8)*** %121, align 8, !tbaa !13
  %123 = getelementptr inbounds i8 (%"class.std::ctype"*, i8)*, i8 (%"class.std::ctype"*, i8)** %122, i64 6
  %124 = load i8 (%"class.std::ctype"*, i8)*, i8 (%"class.std::ctype"*, i8)** %123, align 8
  %125 = call signext i8 %124(%"class.std::ctype"* nonnull align 8 dereferenceable(570) %110, i8 signext 10)
  br label %126

126:                                              ; preds = %117, %120
  %127 = phi i8 [ %119, %117 ], [ %125, %120 ]
  %128 = call nonnull align 8 dereferenceable(8) %"class.std::basic_ostream"* @_ZNSo3putEc(%"class.std::basic_ostream"* nonnull align 8 dereferenceable(8) @_ZSt4cout, i8 signext %127)
  %129 = call nonnull align 8 dereferenceable(8) %"class.std::basic_ostream"* @_ZNSo5flushEv(%"class.std::basic_ostream"* nonnull align 8 dereferenceable(8) %128)
  call void @llvm.lifetime.end.p0i8(i64 4, i8* nonnull %6) #8
  call void @llvm.lifetime.end.p0i8(i64 4, i8* nonnull %5) #8
  call void @llvm.lifetime.end.p0i8(i64 400004, i8* nonnull %4) #8
  ret i32 0

130:                                              ; preds = %72
  %131 = trunc i64 %74 to i32
  %132 = sub nsw i32 %131, %73
  %133 = sext i32 %132 to i64
  %134 = getelementptr inbounds [100001 x i32], [100001 x i32]* %1, i64 0, i64 %133
  store i32 %76, i32* %134, align 4, !tbaa !5
  br label %137

135:                                              ; preds = %72
  %136 = add nsw i32 %73, 1
  br label %137

137:                                              ; preds = %135, %130
  %138 = phi i32 [ %73, %130 ], [ %136, %135 ]
  %139 = icmp eq i64 %74, %35
  br i1 %139, label %83, label %58, !llvm.loop !22
}

; Function Attrs: argmemonly mustprogress nofree nosync nounwind willreturn
declare void @llvm.lifetime.start.p0i8(i64 immarg, i8* nocapture) #4

; Function Attrs: argmemonly mustprogress nofree nounwind willreturn writeonly
declare void @llvm.memset.p0i8.i64(i8* nocapture writeonly, i8, i64, i1 immarg) #5

declare nonnull align 8 dereferenceable(16) %"class.std::basic_istream"* @_ZNSirsERi(%"class.std::basic_istream"* nonnull align 8 dereferenceable(16), i32* nonnull align 4 dereferenceable(4)) local_unnamed_addr #0

declare nonnull align 8 dereferenceable(8) %"class.std::basic_ostream"* @_ZNSolsEi(%"class.std::basic_ostream"* nonnull align 8 dereferenceable(8), i32) local_unnamed_addr #0

; Function Attrs: argmemonly mustprogress nofree nosync nounwind willreturn
declare void @llvm.lifetime.end.p0i8(i64 immarg, i8* nocapture) #4

declare nonnull align 8 dereferenceable(8) %"class.std::basic_ostream"* @_ZSt16__ostream_insertIcSt11char_traitsIcEERSt13basic_ostreamIT_T0_ES6_PKS3_l(%"class.std::basic_ostream"* nonnull align 8 dereferenceable(8), i8*, i64) local_unnamed_addr #0

declare nonnull align 8 dereferenceable(8) %"class.std::basic_ostream"* @_ZNSo3putEc(%"class.std::basic_ostream"* nonnull align 8 dereferenceable(8), i8 signext) local_unnamed_addr #0

declare nonnull align 8 dereferenceable(8) %"class.std::basic_ostream"* @_ZNSo5flushEv(%"class.std::basic_ostream"* nonnull align 8 dereferenceable(8)) local_unnamed_addr #0

; Function Attrs: noreturn
declare void @_ZSt16__throw_bad_castv() local_unnamed_addr #6

declare void @_ZNKSt5ctypeIcE13_M_widen_initEv(%"class.std::ctype"* nonnull align 8 dereferenceable(570)) local_unnamed_addr #0

; Function Attrs: sspstrong uwtable
define internal void @_GLOBAL__sub_I_1353.cpp() #7 section ".text.startup" {
  tail call void @_ZNSt8ios_base4InitC1Ev(%"class.std::ios_base::Init"* nonnull align 1 dereferenceable(1) @_ZStL8__ioinit)
  %1 = tail call i32 @__cxa_atexit(void (i8*)* bitcast (void (%"class.std::ios_base::Init"*)* @_ZNSt8ios_base4InitD1Ev to void (i8*)*), i8* getelementptr inbounds (%"class.std::ios_base::Init", %"class.std::ios_base::Init"* @_ZStL8__ioinit, i64 0, i32 0), i8* nonnull @__dso_handle) #8
  ret void
}


!llvm.module.flags = !{!0, !1, !2, !3}
!llvm.ident = !{!4}

!0 = !{i32 1, !"wchar_size", i32 4}
!1 = !{i32 7, !"PIC Level", i32 2}
!2 = !{i32 7, !"PIE Level", i32 2}
!3 = !{i32 7, !"uwtable", i32 1}
!4 = !{!"clang version 13.0.0"}
!5 = !{!6, !6, i64 0}
!6 = !{!"int", !7, i64 0}
!7 = !{!"omnipotent char", !8, i64 0}
!8 = !{!"Simple C++ TBAA"}
!9 = distinct !{!9, !10}
!10 = !{!"llvm.loop.mustprogress"}
!11 = distinct !{!11, !10}
!12 = distinct !{!12, !10}
!13 = !{!14, !14, i64 0}
!14 = !{!"vtable pointer", !8, i64 0}
!15 = !{!16, !17, i64 240}
!16 = !{!"_ZTSSt9basic_iosIcSt11char_traitsIcEE", !17, i64 216, !7, i64 224, !18, i64 225, !17, i64 232, !17, i64 240, !17, i64 248, !17, i64 256}
!17 = !{!"any pointer", !7, i64 0}
!18 = !{!"bool", !7, i64 0}
!19 = !{!20, !7, i64 56}
!20 = !{!"_ZTSSt5ctypeIcE", !17, i64 16, !18, i64 24, !17, i64 32, !17, i64 40, !17, i64 48, !7, i64 56, !7, i64 57, !7, i64 313, !7, i64 569}
!21 = !{!7, !7, i64 0}
!22 = distinct !{!22, !10}
